; Function Attrs: mustprogress uwtable
define internal void @_ZNK9grpc_core12_GLOBAL__N_127HierarchicalAddressIterator7ForEachEN4absl12lts_2024072211FunctionRefIFvRKNS_17EndpointAddressesEEEE(ptr noundef nonnull align 8 dereferenceable(32) %0, ptr %1, ptr %2) unnamed_addr #6 align 2 personality ptr @__gxx_personality_v0 {
  %4 = alloca %"class.absl::lts_20240722::FunctionRef", align 8
  %5 = alloca %"class.grpc_core::RefCountedPtr.40", align 8
  %6 = alloca %class.anon.41, align 8
  store ptr %1, ptr %4, align 8
  %7 = getelementptr inbounds nuw i8, ptr %4, i64 8
  store ptr %2, ptr %7, align 8
  call void @llvm.lifetime.start.p0(i64 8, ptr nonnull %5) #23
  store ptr null, ptr %5, align 8, !tbaa !71
  %8 = getelementptr inbounds nuw i8, ptr %0, i64 8
  %9 = load ptr, ptr %8, align 8, !tbaa !33
  call void @llvm.lifetime.start.p0(i64 24, ptr nonnull %6) #23
  store ptr %0, ptr %6, align 8, !tbaa !74
  %10 = getelementptr inbounds nuw i8, ptr %6, i64 8
  store ptr %5, ptr %10, align 8, !tbaa !79
  %11 = getelementptr inbounds nuw i8, ptr %6, i64 16
  store ptr %4, ptr %11, align 8, !tbaa !80
  %12 = load ptr, ptr %9, align 8, !tbaa !42
  %13 = getelementptr inbounds nuw i8, ptr %12, i64 16
  %14 = load ptr, ptr %13, align 8
  invoke void %14(ptr noundef nonnull align 8 dereferenceable(8) %9, ptr nonnull %6, ptr nonnull @_ZN4absl12lts_2024072219functional_internal12InvokeObjectIZNK9grpc_core12_GLOBAL__N_127HierarchicalAddressIterator7ForEachENS0_11FunctionRefIFvRKNS3_17EndpointAddressesEEEEEUlS9_E_vJS9_EEET0_NS1_7VoidPtrEDpNS1_8ForwardTIT1_E4typeE)
          to label %15 unwind label %22

15:                                               ; preds = %3
  call void @llvm.lifetime.end.p0(i64 24, ptr nonnull %6) #23
  %16 = load ptr, ptr %5, align 8, !tbaa !71
  %.not.i = icmp eq ptr %16, null
  br i1 %.not.i, label %_ZN9grpc_core13RefCountedPtrINS_19HierarchicalPathArgEED2Ev.exit, label %17

17:                                               ; preds = %15
  %18 = getelementptr inbounds nuw i8, ptr %16, i64 8
  %19 = atomicrmw sub ptr %18, i64 1 acq_rel, align 8
  %20 = icmp eq i64 %19, 1
  br i1 %20, label %21, label %_ZN9grpc_core13RefCountedPtrINS_19HierarchicalPathArgEED2Ev.exit, !prof !55

21:                                               ; preds = %17
  call void @_ZNK9grpc_core11UnrefDeleteclIKNS_19HierarchicalPathArgEEEvPT_(ptr noundef nonnull align 8 dereferenceable(16) %16, ptr noundef nonnull align 8 dereferenceable(16) %16)
  br label %_ZN9grpc_core13RefCountedPtrINS_19HierarchicalPathArgEED2Ev.exit

_ZN9grpc_core13RefCountedPtrINS_19HierarchicalPathArgEED2Ev.exit: ; preds = %15, %17, %21
  call void @llvm.lifetime.end.p0(i64 8, ptr nonnull %5) #23
  ret void

22:                                               ; preds = %3
  %23 = landingpad { ptr, i32 }
          cleanup
  call void @llvm.lifetime.end.p0(i64 24, ptr nonnull %6) #23
  %24 = load ptr, ptr %5, align 8, !tbaa !71
  %.not.i2 = icmp eq ptr %24, null
  br i1 %.not.i2, label %_ZN9grpc_core13RefCountedPtrINS_19HierarchicalPathArgEED2Ev.exit3, label %25

25:                                               ; preds = %22
  %26 = getelementptr inbounds nuw i8, ptr %24, i64 8
  %27 = atomicrmw sub ptr %26, i64 1 acq_rel, align 8
  %28 = icmp eq i64 %27, 1
  br i1 %28, label %29, label %_ZN9grpc_core13RefCountedPtrINS_19HierarchicalPathArgEED2Ev.exit3, !prof !55

29:                                               ; preds = %25
  call void @_ZNK9grpc_core11UnrefDeleteclIKNS_19HierarchicalPathArgEEEvPT_(ptr noundef nonnull align 8 dereferenceable(16) %24, ptr noundef nonnull align 8 dereferenceable(16) %24)
  br label %_ZN9grpc_core13RefCountedPtrINS_19HierarchicalPathArgEED2Ev.exit3

_ZN9grpc_core13RefCountedPtrINS_19HierarchicalPathArgEED2Ev.exit3: ; preds = %22, %25, %29
  call void @llvm.lifetime.end.p0(i64 8, ptr nonnull %5) #23
  resume { ptr, i32 } %23
}